; Function Attrs: mustprogress nofree norecurse nosync nounwind willreturn memory(read, inaccessiblemem: none) uwtable
define ptr @hwloc_get_obj_by_depth(ptr noundef readonly captures(none) %0, i32 noundef %1, i32 noundef %2) local_unnamed_addr #1 {
  %4 = getelementptr inbounds nuw i8, ptr %0, i64 4
  %5 = load i32, ptr %4, align 4, !tbaa !7
  %.not = icmp ult i32 %1, %5
  br i1 %.not, label %17, label %6

6:                                                ; preds = %3
  %7 = sub nsw i32 -3, %1
  %8 = icmp ult i32 %7, 6
  br i1 %8, label %9, label %30

9:                                                ; preds = %6
  %10 = getelementptr inbounds nuw i8, ptr %0, i64 256
  %11 = zext nneg i32 %7 to i64
  %12 = getelementptr inbounds nuw [6 x %struct.hwloc_special_level_s], ptr %10, i64 0, i64 %11
  %13 = load i32, ptr %12, align 8, !tbaa !41
  %14 = icmp ult i32 %2, %13
  br i1 %14, label %15, label %30

15:                                               ; preds = %9
  %16 = getelementptr inbounds nuw i8, ptr %12, i64 8
  br label %.sink.split

17:                                               ; preds = %3
  %18 = getelementptr inbounds nuw i8, ptr %0, i64 16
  %19 = load ptr, ptr %18, align 8, !tbaa !43
  %20 = sext i32 %1 to i64
  %21 = getelementptr inbounds i32, ptr %19, i64 %20
  %22 = load i32, ptr %21, align 4, !tbaa !3
  %.not21 = icmp ult i32 %2, %22
  br i1 %.not21, label %23, label %30

23:                                               ; preds = %17
  %24 = getelementptr inbounds nuw i8, ptr %0, i64 24
  %25 = load ptr, ptr %24, align 8, !tbaa !32
  %26 = getelementptr inbounds ptr, ptr %25, i64 %20
  br label %.sink.split

.sink.split:                                      ; preds = %23, %15
  %.sink22.in = phi ptr [ %16, %15 ], [ %26, %23 ]
  %.sink22 = load ptr, ptr %.sink22.in, align 8, !tbaa !33
  %27 = zext i32 %2 to i64
  %28 = getelementptr inbounds nuw ptr, ptr %.sink22, i64 %27
  %29 = load ptr, ptr %28, align 8, !tbaa !35
  br label %30

30:                                               ; preds = %.sink.split, %17, %9, %6
  %.1 = phi ptr [ null, %9 ], [ null, %6 ], [ null, %17 ], [ %29, %.sink.split ]
  ret ptr %.1
}